target datalayout = "e-m:e-p270:32:32-p271:32:32-p272:64:64-i64:64-i128:128-f80:128-n8:16:32:64-S128"
target triple = "x86_64-pc-linux-gnu"

%struct.lxb_html_tree = type { ptr, ptr, ptr, ptr, ptr, ptr, ptr, %struct.lxb_html_tree_pending_table_t, ptr, i8, i8, i8, i8, i8, i8, ptr, ptr, ptr, i32, i64 }
%struct.lxb_html_tree_pending_table_t = type { ptr, i8 }
%struct.lxb_dom_node = type { %struct.lxb_dom_event_target, i64, i64, i64, ptr, ptr, ptr, ptr, ptr, ptr, ptr, i32, i64 }
%struct.lxb_dom_event_target = type { ptr }
%struct.lxb_dom_document = type { %struct.lxb_dom_node, i32, i32, ptr, ptr, ptr, ptr, ptr, ptr, ptr, ptr, ptr, ptr, ptr, ptr, ptr, ptr, ptr, ptr, ptr, i8, i8, i8 }

; Function Attrs: inlinehint nounwind uwtable
define internal ptr @lxb_html_tree_insert_html_element(ptr noundef %0, ptr noundef %1) #3 {
  %3 = alloca ptr, align 8
  %4 = alloca ptr, align 8
  store ptr %0, ptr %3, align 8, !tbaa !4
  store ptr %1, ptr %4, align 8, !tbaa !9
  %5 = load ptr, ptr %3, align 8, !tbaa !4
  %6 = load ptr, ptr %4, align 8, !tbaa !9
  %7 = call ptr @lxb_html_tree_insert_foreign_element(ptr noundef %5, ptr noundef %6, i64 noundef 2)
  ret ptr %7
}

; Function Attrs: inlinehint nounwind uwtable
define internal zeroext i1 @lxb_html_tree_insertion_mode_in_body_table(ptr noundef %0, ptr noundef %1) #3 {
  %3 = alloca i1, align 1
  %4 = alloca ptr, align 8
  %5 = alloca ptr, align 8
  %6 = alloca ptr, align 8
  %7 = alloca ptr, align 8
  %8 = alloca i32, align 4
  store ptr %0, ptr %4, align 8, !tbaa !4
  store ptr %1, ptr %5, align 8, !tbaa !9
  call void @llvm.lifetime.start.p0(i64 8, ptr %6) #5
  call void @llvm.lifetime.start.p0(i64 8, ptr %7) #5
  %9 = load ptr, ptr %4, align 8, !tbaa !4
  %10 = getelementptr inbounds nuw %struct.lxb_html_tree, ptr %9, i32 0, i32 1
  %11 = load ptr, ptr %10, align 8, !tbaa !57
  %12 = getelementptr inbounds nuw %struct.lxb_dom_document, ptr %11, i32 0, i32 1
  %13 = load i32, ptr %12, align 8, !tbaa !79
  %14 = icmp ne i32 %13, 1
  br i1 %14, label %15, label %24

15:                                               ; preds = %2
  %16 = load ptr, ptr %4, align 8, !tbaa !4
  %17 = call ptr @lxb_html_tree_element_in_scope(ptr noundef %16, i64 noundef 145, i64 noundef 2, i32 noundef 32)
  store ptr %17, ptr %6, align 8, !tbaa !37
  %18 = load ptr, ptr %6, align 8, !tbaa !37
  %19 = icmp ne ptr %18, null
  br i1 %19, label %20, label %23

20:                                               ; preds = %15
  %21 = load ptr, ptr %4, align 8, !tbaa !4
  %22 = load ptr, ptr %5, align 8, !tbaa !9
  call void @lxb_html_tree_close_p_element(ptr noundef %21, ptr noundef %22)
  br label %23

23:                                               ; preds = %20, %15
  br label %24

24:                                               ; preds = %23, %2
  %25 = load ptr, ptr %4, align 8, !tbaa !4
  %26 = load ptr, ptr %5, align 8, !tbaa !9
  %27 = call ptr @lxb_html_tree_insert_html_element(ptr noundef %25, ptr noundef %26)
  store ptr %27, ptr %7, align 8, !tbaa !40
  %28 = load ptr, ptr %7, align 8, !tbaa !40
  %29 = icmp eq ptr %28, null
  br i1 %29, label %30, label %35

30:                                               ; preds = %24
  %31 = load ptr, ptr %4, align 8, !tbaa !4
  %32 = getelementptr inbounds nuw %struct.lxb_html_tree, ptr %31, i32 0, i32 18
  store i32 2, ptr %32, align 8, !tbaa !25
  %33 = load ptr, ptr %4, align 8, !tbaa !4
  %34 = call zeroext i1 @lxb_html_tree_process_abort(ptr noundef %33)
  store i1 %34, ptr %3, align 1
  store i32 1, ptr %8, align 4
  br label %40

35:                                               ; preds = %24
  %36 = load ptr, ptr %4, align 8, !tbaa !4
  %37 = getelementptr inbounds nuw %struct.lxb_html_tree, ptr %36, i32 0, i32 10
  store i8 0, ptr %37, align 1, !tbaa !28
  %38 = load ptr, ptr %4, align 8, !tbaa !4
  %39 = getelementptr inbounds nuw %struct.lxb_html_tree, ptr %38, i32 0, i32 15
  store ptr @lxb_html_tree_insertion_mode_in_table, ptr %39, align 8, !tbaa !20
  store i1 true, ptr %3, align 1
  store i32 1, ptr %8, align 4
  br label %40

40:                                               ; preds = %35, %30
  call void @llvm.lifetime.end.p0(i64 8, ptr %7) #5
  call void @llvm.lifetime.end.p0(i64 8, ptr %6) #5
  %41 = load i1, ptr %3, align 1
  ret i1 %41
}