; Function Attrs: inlinehint nounwind uwtable
define internal fastcc zeroext i1 @lxb_html_tree_insertion_mode_in_body_table(ptr noundef %0, ptr noundef %1) unnamed_addr #3 {
  %3 = getelementptr inbounds nuw i8, ptr %0, i64 8
  %4 = load ptr, ptr %3, align 8, !tbaa !47
  %5 = getelementptr inbounds nuw i8, ptr %4, i64 104
  %6 = load i32, ptr %5, align 8, !tbaa !72
  %.not = icmp eq i32 %6, 1
  br i1 %.not, label %10, label %7

7:                                                ; preds = %2
  %8 = tail call ptr @lxb_html_tree_element_in_scope(ptr noundef nonnull %0, i64 noundef 145, i64 noundef 2, i32 noundef 32) #6
  %.not13 = icmp eq ptr %8, null
  br i1 %.not13, label %10, label %9

9:                                                ; preds = %7
  tail call void @lxb_html_tree_close_p_element(ptr noundef nonnull %0, ptr noundef %1) #6
  br label %10

10:                                               ; preds = %7, %9, %2
  %11 = tail call ptr @lxb_html_tree_insert_foreign_element(ptr noundef nonnull %0, ptr noundef %1, i64 noundef 2) #6
  %12 = icmp eq ptr %11, null
  br i1 %12, label %13, label %16

13:                                               ; preds = %10
  %14 = getelementptr inbounds nuw i8, ptr %0, i64 112
  store i32 2, ptr %14, align 8, !tbaa !22
  %15 = tail call zeroext i1 @lxb_html_tree_process_abort(ptr noundef nonnull %0) #6
  br label %19

16:                                               ; preds = %10
  %17 = getelementptr inbounds nuw i8, ptr %0, i64 81
  store i8 0, ptr %17, align 1, !tbaa !25
  %18 = getelementptr inbounds nuw i8, ptr %0, i64 88
  store ptr @lxb_html_tree_insertion_mode_in_table, ptr %18, align 8, !tbaa !17
  br label %19

19:                                               ; preds = %16, %13
  %.0 = phi i1 [ %15, %13 ], [ true, %16 ]
  ret i1 %.0
}